; Function Attrs: mustprogress uwtable
define dso_local void @_ZN18cmCTestTestHandler22UpdateMaxTestNameWidthEv(ptr nocapture noundef nonnull readonly align 8 dereferenceable(4416) %0) local_unnamed_addr #3 align 2 {
  %2 = getelementptr inbounds i8, ptr %0, i64 32
  %3 = load ptr, ptr %2, align 8
  %4 = tail call noundef i32 @_ZNK7cmCTest19GetMaxTestNameWidthEv(ptr noundef nonnull align 8 dereferenceable(8) %3)
  %5 = sext i32 %4 to i64
  %6 = getelementptr inbounds i8, ptr %0, i64 2088
  %7 = load ptr, ptr %6, align 8
  %8 = getelementptr inbounds i8, ptr %0, i64 2096
  %9 = load ptr, ptr %8, align 8
  %.not1011 = icmp eq ptr %7, %9
  br i1 %.not1011, label %._crit_edge, label %.lr.ph

.lr.ph:                                           ; preds = %1, %15
  %.013 = phi i64 [ %.1, %15 ], [ %5, %1 ]
  %.sroa.07.012 = phi ptr [ %16, %15 ], [ %7, %1 ]
  %10 = getelementptr inbounds i8, ptr %.sroa.07.012, i64 40
  %11 = tail call noundef i64 @_ZNKSt7__cxx1112basic_stringIcSt11char_traitsIcESaIcEE4sizeEv(ptr noundef nonnull align 8 dereferenceable(32) %10) #25
  %12 = icmp ult i64 %.013, %11
  br i1 %12, label %13, label %15

13:                                               ; preds = %.lr.ph
  %14 = tail call noundef i64 @_ZNKSt7__cxx1112basic_stringIcSt11char_traitsIcESaIcEE4sizeEv(ptr noundef nonnull align 8 dereferenceable(32) %10) #25
  br label %15

15:                                               ; preds = %.lr.ph, %13
  %.1 = phi i64 [ %14, %13 ], [ %.013, %.lr.ph ]
  %16 = getelementptr inbounds i8, ptr %.sroa.07.012, i64 904
  %.not10 = icmp eq ptr %16, %9
  br i1 %.not10, label %._crit_edge, label %.lr.ph

._crit_edge:                                      ; preds = %15, %1
  %.0.lcssa = phi i64 [ %5, %1 ], [ %.1, %15 ]
  %17 = load ptr, ptr %2, align 8
  %18 = tail call noundef i32 @_ZNK7cmCTest19GetMaxTestNameWidthEv(ptr noundef nonnull align 8 dereferenceable(8) %17)
  %19 = sext i32 %18 to i64
  %.not = icmp eq i64 %.0.lcssa, %19
  br i1 %.not, label %23, label %20

20:                                               ; preds = %._crit_edge
  %21 = load ptr, ptr %2, align 8
  %22 = trunc i64 %.0.lcssa to i32
  tail call void @_ZN7cmCTest19SetMaxTestNameWidthEi(ptr noundef nonnull align 8 dereferenceable(8) %21, i32 noundef %22)
  br label %23

23:                                               ; preds = %20, %._crit_edge
  ret void
}